; Function Attrs: mustprogress uwtable
define noundef zeroext i8 @_ZN2cv11FileStorage4Impl13Base64Decoder8getUInt8Ev(ptr noundef nonnull align 8 dereferenceable(97) %0) local_unnamed_addr #13 align 2 {
  %2 = getelementptr inbounds nuw i8, ptr %0, i64 56
  %3 = getelementptr inbounds nuw i8, ptr %0, i64 64
  %4 = load ptr, ptr %3, align 8, !tbaa !269
  %5 = load ptr, ptr %2, align 8, !tbaa !133
  %6 = ptrtoint ptr %4 to i64
  %7 = ptrtoint ptr %5 to i64
  %8 = sub i64 %6, %7
  %9 = getelementptr inbounds nuw i8, ptr %0, i64 80
  %10 = load i64, ptr %9, align 8, !tbaa !331
  %.not = icmp ult i64 %10, %8
  br i1 %.not, label %13, label %11

11:                                               ; preds = %1
  %12 = tail call noundef zeroext i1 @_ZN2cv11FileStorage4Impl13Base64Decoder8readMoreEi(ptr noundef nonnull align 8 dereferenceable(97) %0, i32 noundef 1)
  br i1 %12, label %._crit_edge, label %19

._crit_edge:                                      ; preds = %11
  %.pre = load i64, ptr %9, align 8, !tbaa !331
  %.pre2 = load ptr, ptr %2, align 8, !tbaa !133
  br label %13

13:                                               ; preds = %._crit_edge, %1
  %14 = phi ptr [ %.pre2, %._crit_edge ], [ %5, %1 ]
  %15 = phi i64 [ %.pre, %._crit_edge ], [ %10, %1 ]
  %16 = add i64 %15, 1
  store i64 %16, ptr %9, align 8, !tbaa !331
  %17 = getelementptr inbounds nuw i8, ptr %14, i64 %15
  %18 = load i8, ptr %17, align 1, !tbaa !5
  br label %19

19:                                               ; preds = %11, %13
  %.0 = phi i8 [ %18, %13 ], [ 0, %11 ]
  ret i8 %.0
}